; ModuleID = 'bench/opencv/original/default.ll'
source_filename = "bench/opencv/original/default.ll"
target datalayout = "e-m:e-p270:32:32-p271:32:32-p272:64:64-i64:64-i128:128-f80:128-n8:16:32:64-S128"
target triple = "x86_64-pc-linux-gnu"

%"class.std::ios_base::Init" = type { i8 }
%"class.std::basic_ostream" = type { ptr, %"class.std::basic_ios" }
%"class.std::basic_ios" = type { %"class.std::ios_base", ptr, i8, i8, ptr, ptr, ptr, ptr }
%"class.std::ios_base" = type { ptr, i64, i64, i32, i32, i32, ptr, %"struct.std::ios_base::_Words", [8 x %"struct.std::ios_base::_Words"], i32, ptr, %"class.std::locale" }
%"struct.std::ios_base::_Words" = type { ptr, i64 }
%"class.std::locale" = type { ptr }
%"class.std::shared_ptr" = type { %"class.std::__shared_ptr" }
%"class.std::__shared_ptr" = type { ptr, %"class.std::__shared_count" }
%"class.std::__shared_count" = type { ptr }
%"class.std::logic_error" = type { %"class.std::exception", %"struct.std::__cow_string" }
%"class.std::exception" = type { ptr }
%"struct.std::__cow_string" = type { %union.anon }
%union.anon = type { ptr }

$_ZN2cv4util11throw_errorISt11logic_errorEEvOT_ = comdat any

@_ZStL8__ioinit = internal global %"class.std::ios_base::Init" zeroinitializer, align 1
@__dso_handle = external hidden global i8
@_ZSt4cerr = external global %"class.std::basic_ostream", align 8
@.str = private unnamed_addr constant [69 x i8] c"Cannot utilize getDefaultVPLDeviceAndCtx without HAVE_ONEVPL enabled\00", align 1
@_ZTISt11logic_error = external constant ptr
@llvm.global_ctors = appending global [1 x { i32, ptr, ptr }] [{ i32, ptr, ptr } { i32 65535, ptr @_GLOBAL__sub_I_default.cpp, ptr null }]

declare void @_ZNSt8ios_base4InitC1Ev(ptr noundef nonnull align 1 dereferenceable(1)) unnamed_addr #0

; Function Attrs: nounwind
declare void @_ZNSt8ios_base4InitD1Ev(ptr noundef nonnull align 1 dereferenceable(1)) unnamed_addr #1

; Function Attrs: nofree nounwind
declare i32 @__cxa_atexit(ptr, ptr, ptr) local_unnamed_addr #2

; Function Attrs: mustprogress noreturn uwtable
define void @_ZN2cv4gapi3wip6onevpl24getDefaultDeviceSelectorERKSt6vectorINS2_8CfgParamESaIS4_EE(ptr dead_on_unwind noalias readnone sret(%"class.std::shared_ptr") align 8 captures(none) %0, ptr noundef nonnull readnone align 8 captures(none) dereferenceable(24) %1) local_unnamed_addr #3 personality ptr @__gxx_personality_v0 {
  %3 = alloca %"class.std::logic_error", align 8
  %4 = tail call noundef nonnull align 8 dereferenceable(8) ptr @_ZSt16__ostream_insertIcSt11char_traitsIcEERSt13basic_ostreamIT_T0_ES6_PKS3_l(ptr noundef nonnull align 8 dereferenceable(8) @_ZSt4cerr, ptr noundef nonnull @.str, i64 noundef 68)
  %5 = load ptr, ptr @_ZSt4cerr, align 8, !tbaa !3
  %6 = getelementptr i8, ptr %5, i64 -24
  %7 = load i64, ptr %6, align 8
  %8 = getelementptr inbounds i8, ptr @_ZSt4cerr, i64 %7
  %9 = getelementptr inbounds nuw i8, ptr %8, i64 240
  %10 = load ptr, ptr %9, align 8, !tbaa !6
  %.not.i.i.i = icmp eq ptr %10, null
  br i1 %.not.i.i.i, label %11, label %_ZSt13__check_facetISt5ctypeIcEERKT_PS3_.exit.i.i

11:                                               ; preds = %2
  tail call void @_ZSt16__throw_bad_castv() #8
  unreachable

_ZSt13__check_facetISt5ctypeIcEERKT_PS3_.exit.i.i: ; preds = %2
  %12 = getelementptr inbounds nuw i8, ptr %10, i64 56
  %13 = load i8, ptr %12, align 8, !tbaa !26
  %.not.i1.i.i = icmp eq i8 %13, 0
  br i1 %.not.i1.i.i, label %17, label %14

14:                                               ; preds = %_ZSt13__check_facetISt5ctypeIcEERKT_PS3_.exit.i.i
  %15 = getelementptr inbounds nuw i8, ptr %10, i64 67
  %16 = load i8, ptr %15, align 1, !tbaa !32
  br label %_ZSt4endlIcSt11char_traitsIcEERSt13basic_ostreamIT_T0_ES6_.exit

17:                                               ; preds = %_ZSt13__check_facetISt5ctypeIcEERKT_PS3_.exit.i.i
  tail call void @_ZNKSt5ctypeIcE13_M_widen_initEv(ptr noundef nonnull align 8 dereferenceable(570) %10)
  %18 = load ptr, ptr %10, align 8, !tbaa !3
  %19 = getelementptr inbounds nuw i8, ptr %18, i64 48
  %20 = load ptr, ptr %19, align 8
  %21 = tail call noundef signext i8 %20(ptr noundef nonnull align 8 dereferenceable(570) %10, i8 noundef signext 10)
  br label %_ZSt4endlIcSt11char_traitsIcEERSt13basic_ostreamIT_T0_ES6_.exit

_ZSt4endlIcSt11char_traitsIcEERSt13basic_ostreamIT_T0_ES6_.exit: ; preds = %14, %17
  %.0.i.i.i = phi i8 [ %16, %14 ], [ %21, %17 ]
  %22 = tail call noundef nonnull align 8 dereferenceable(8) ptr @_ZNSo3putEc(ptr noundef nonnull align 8 dereferenceable(8) @_ZSt4cerr, i8 noundef signext %.0.i.i.i)
  %23 = tail call noundef nonnull align 8 dereferenceable(8) ptr @_ZNSo5flushEv(ptr noundef nonnull align 8 dereferenceable(8) %22)
  call void @llvm.lifetime.start.p0(i64 16, ptr nonnull %3) #9
  call void @_ZNSt11logic_errorC1EPKc(ptr noundef nonnull align 8 dereferenceable(16) %3, ptr noundef nonnull @.str)
  invoke void @_ZN2cv4util11throw_errorISt11logic_errorEEvOT_(ptr noundef nonnull align 8 dereferenceable(16) %3) #8
          to label %24 unwind label %25

24:                                               ; preds = %_ZSt4endlIcSt11char_traitsIcEERSt13basic_ostreamIT_T0_ES6_.exit
  unreachable

25:                                               ; preds = %_ZSt4endlIcSt11char_traitsIcEERSt13basic_ostreamIT_T0_ES6_.exit
  %26 = landingpad { ptr, i32 }
          cleanup
  call void @_ZNSt11logic_errorD1Ev(ptr noundef nonnull align 8 dereferenceable(16) %3) #9
  call void @llvm.lifetime.end.p0(i64 16, ptr nonnull %3) #9
  resume { ptr, i32 } %26
}

; Function Attrs: mustprogress noreturn uwtable
define linkonce_odr hidden void @_ZN2cv4util11throw_errorISt11logic_errorEEvOT_(ptr noundef nonnull align 8 dereferenceable(16) %0) local_unnamed_addr #3 comdat {
  %2 = tail call ptr @__cxa_allocate_exception(i64 16) #9
  tail call void @_ZNSt11logic_errorC1EOS_(ptr noundef nonnull align 8 dereferenceable(16) %2, ptr noundef nonnull align 8 dereferenceable(16) %0) #9
  tail call void @__cxa_throw(ptr nonnull %2, ptr nonnull @_ZTISt11logic_error, ptr nonnull @_ZNSt11logic_errorD1Ev) #8
  unreachable
}

; Function Attrs: mustprogress nocallback nofree nosync nounwind willreturn memory(argmem: readwrite)
declare void @llvm.lifetime.start.p0(i64 immarg, ptr captures(none)) #4

declare void @_ZNSt11logic_errorC1EPKc(ptr noundef nonnull align 8 dereferenceable(16), ptr noundef) unnamed_addr #0

declare i32 @__gxx_personality_v0(...)

; Function Attrs: nounwind
declare void @_ZNSt11logic_errorD1Ev(ptr noundef nonnull align 8 dereferenceable(16)) unnamed_addr #1

; Function Attrs: mustprogress nocallback nofree nosync nounwind willreturn memory(argmem: readwrite)
declare void @llvm.lifetime.end.p0(i64 immarg, ptr captures(none)) #4

declare noundef nonnull align 8 dereferenceable(8) ptr @_ZSt16__ostream_insertIcSt11char_traitsIcEERSt13basic_ostreamIT_T0_ES6_PKS3_l(ptr noundef nonnull align 8 dereferenceable(8), ptr noundef, i64 noundef) local_unnamed_addr #0

declare noundef nonnull align 8 dereferenceable(8) ptr @_ZNSo3putEc(ptr noundef nonnull align 8 dereferenceable(8), i8 noundef signext) local_unnamed_addr #0

declare noundef nonnull align 8 dereferenceable(8) ptr @_ZNSo5flushEv(ptr noundef nonnull align 8 dereferenceable(8)) local_unnamed_addr #0

; Function Attrs: noreturn
declare void @_ZSt16__throw_bad_castv() local_unnamed_addr #5

declare void @_ZNKSt5ctypeIcE13_M_widen_initEv(ptr noundef nonnull align 8 dereferenceable(570)) local_unnamed_addr #0

declare ptr @__cxa_allocate_exception(i64) local_unnamed_addr

; Function Attrs: nounwind
declare void @_ZNSt11logic_errorC1EOS_(ptr noundef nonnull align 8 dereferenceable(16), ptr noundef nonnull align 8 dereferenceable(16)) unnamed_addr #1

; Function Attrs: cold noreturn
declare void @__cxa_throw(ptr, ptr, ptr) local_unnamed_addr #6

; Function Attrs: uwtable
define internal void @_GLOBAL__sub_I_default.cpp() #7 section ".text.startup" {
  tail call void @_ZNSt8ios_base4InitC1Ev(ptr noundef nonnull align 1 dereferenceable(1) @_ZStL8__ioinit)
  %1 = tail call i32 @__cxa_atexit(ptr nonnull @_ZNSt8ios_base4InitD1Ev, ptr nonnull @_ZStL8__ioinit, ptr nonnull @__dso_handle) #9
  ret void
}


!llvm.module.flags = !{!0, !1, !2}

!0 = !{i32 1, !"wchar_size", i32 4}
!1 = !{i32 8, !"PIC Level", i32 2}
!2 = !{i32 7, !"uwtable", i32 2}
!3 = !{!4, !4, i64 0}
!4 = !{!"vtable pointer", !5, i64 0}
!5 = !{!"Simple C++ TBAA"}
!6 = !{!7, !23, i64 240}
!7 = !{!"_ZTSSt9basic_iosIcSt11char_traitsIcEE", !8, i64 0, !20, i64 216, !10, i64 224, !21, i64 225, !22, i64 232, !23, i64 240, !24, i64 248, !25, i64 256}
!8 = !{!"_ZTSSt8ios_base", !9, i64 8, !9, i64 16, !11, i64 24, !12, i64 28, !12, i64 32, !13, i64 40, !15, i64 48, !10, i64 64, !16, i64 192, !17, i64 200, !18, i64 208}
!9 = !{!"long", !10, i64 0}
!10 = !{!"omnipotent char", !5, i64 0}
!11 = !{!"_ZTSSt13_Ios_Fmtflags", !10, i64 0}
!12 = !{!"_ZTSSt12_Ios_Iostate", !10, i64 0}
!13 = !{!"p1 _ZTSNSt8ios_base14_Callback_listE", !14, i64 0}
!14 = !{!"any pointer", !10, i64 0}
!15 = !{!"_ZTSNSt8ios_base6_WordsE", !14, i64 0, !9, i64 8}
!16 = !{!"int", !10, i64 0}
!17 = !{!"p1 _ZTSNSt8ios_base6_WordsE", !14, i64 0}
!18 = !{!"_ZTSSt6locale", !19, i64 0}
!19 = !{!"p1 _ZTSNSt6locale5_ImplE", !14, i64 0}
!20 = !{!"p1 _ZTSSo", !14, i64 0}
!21 = !{!"bool", !10, i64 0}
!22 = !{!"p1 _ZTSSt15basic_streambufIcSt11char_traitsIcEE", !14, i64 0}
!23 = !{!"p1 _ZTSSt5ctypeIcE", !14, i64 0}
!24 = !{!"p1 _ZTSSt7num_putIcSt19ostreambuf_iteratorIcSt11char_traitsIcEEE", !14, i64 0}
!25 = !{!"p1 _ZTSSt7num_getIcSt19istreambuf_iteratorIcSt11char_traitsIcEEE", !14, i64 0}
!26 = !{!27, !10, i64 56}
!27 = !{!"_ZTSSt5ctypeIcE", !28, i64 0, !29, i64 16, !21, i64 24, !30, i64 32, !30, i64 40, !31, i64 48, !10, i64 56, !10, i64 57, !10, i64 313, !10, i64 569}
!28 = !{!"_ZTSNSt6locale5facetE", !16, i64 8}
!29 = !{!"p1 _ZTS15__locale_struct", !14, i64 0}
!30 = !{!"p1 int", !14, i64 0}
!31 = !{!"p1 short", !14, i64 0}
!32 = !{!10, !10, i64 0}
